target datalayout = "e-m:e-p270:32:32-p271:32:32-p272:64:64-i64:64-i128:128-f80:128-n8:16:32:64-S128"
target triple = "x86_64-pc-linux-gnu"

%struct.List = type { i32, i32, i32, ptr, [0 x %union.ListCell] }
%union.ListCell = type { ptr }
%struct.ParseState = type { ptr, ptr, i32, i32, ptr, ptr, ptr, ptr, ptr, ptr, i8, ptr, ptr, ptr, ptr, ptr, ptr, i8, ptr, i32, i32, ptr, ptr, i8, i8, ptr, i8, i8, i8, i8, i8, ptr, ptr, ptr, ptr, ptr, ptr }
%struct.Node = type { i32 }
%struct.Expr = type { i32 }
%struct.Var = type { %struct.Expr, i32, i16, i32, i32, i32, ptr, i32, i32, i32, i16, i32 }
%struct.RangeTblEntry = type { i32, ptr, ptr, i32, i32, i8, i8, i32, i32, ptr, ptr, i8, i32, i32, ptr, ptr, ptr, ptr, ptr, i8, ptr, ptr, ptr, i32, i8, ptr, ptr, ptr, ptr, double, ptr, i8, i8, ptr }

@.str.1 = private unnamed_addr constant [7 x i8] c"heap.c\00", align 1
@.str.64 = private unnamed_addr constant [65 x i8] c"cannot use generated column \22%s\22 in column generation expression\00", align 1
@.str.65 = private unnamed_addr constant [62 x i8] c"A generated column cannot reference another generated column.\00", align 1
@__func__.check_nested_generated_walker = private unnamed_addr constant [30 x i8] c"check_nested_generated_walker\00", align 1
@.str.66 = private unnamed_addr constant [62 x i8] c"cannot use whole-row variable in column generation expression\00", align 1
@.str.67 = private unnamed_addr constant [66 x i8] c"This would cause the generated column to depend on its own value.\00", align 1

; Function Attrs: inlinehint nounwind uwtable
define internal ptr @list_nth_cell(ptr noundef %0, i32 noundef %1) #5 {
  %3 = alloca ptr, align 8
  %4 = alloca i32, align 4
  store ptr %0, ptr %3, align 8
  store i32 %1, ptr %4, align 4
  %5 = load ptr, ptr %3, align 8
  %6 = getelementptr inbounds nuw %struct.List, ptr %5, i32 0, i32 3
  %7 = load ptr, ptr %6, align 8
  %8 = load i32, ptr %4, align 4
  %9 = sext i32 %8 to i64
  %10 = getelementptr inbounds %union.ListCell, ptr %7, i64 %9
  ret ptr %10
}

; Function Attrs: inlinehint nounwind uwtable
define internal ptr @list_nth(ptr noundef %0, i32 noundef %1) #5 {
  %3 = alloca ptr, align 8
  %4 = alloca i32, align 4
  store ptr %0, ptr %3, align 8
  store i32 %1, ptr %4, align 4
  %5 = load ptr, ptr %3, align 8
  %6 = load i32, ptr %4, align 4
  %7 = call ptr @list_nth_cell(ptr noundef %5, i32 noundef %6)
  %8 = load ptr, ptr %7, align 8
  ret ptr %8
}

; Function Attrs: nounwind uwtable
define internal zeroext i1 @check_nested_generated_walker(ptr noundef %0, ptr noundef %1) #0 {
  %3 = alloca i1, align 1
  %4 = alloca ptr, align 8
  %5 = alloca ptr, align 8
  %6 = alloca ptr, align 8
  %7 = alloca i32, align 4
  %8 = alloca ptr, align 8
  %9 = alloca i32, align 4
  %10 = alloca i16, align 2
  store ptr %0, ptr %4, align 8
  store ptr %1, ptr %5, align 8
  call void @llvm.lifetime.start.p0(i64 8, ptr %6) #10
  %11 = load ptr, ptr %5, align 8
  store ptr %11, ptr %6, align 8
  %12 = load ptr, ptr %4, align 8
  %13 = icmp eq ptr %12, null
  br i1 %13, label %14, label %15

14:                                               ; preds = %2
  store i1 false, ptr %3, align 1
  store i32 1, ptr %7, align 4
  br label %97

15:                                               ; preds = %2
  %16 = load ptr, ptr %4, align 8
  %17 = getelementptr inbounds nuw %struct.Node, ptr %16, i32 0, i32 0
  %18 = load i32, ptr %17, align 4
  %19 = icmp eq i32 %18, 6
  br i1 %19, label %20, label %93

20:                                               ; preds = %15
  call void @llvm.lifetime.start.p0(i64 8, ptr %8) #10
  %21 = load ptr, ptr %4, align 8
  store ptr %21, ptr %8, align 8
  call void @llvm.lifetime.start.p0(i64 4, ptr %9) #10
  call void @llvm.lifetime.start.p0(i64 2, ptr %10) #10
  %22 = load ptr, ptr %6, align 8
  %23 = getelementptr inbounds nuw %struct.ParseState, ptr %22, i32 0, i32 4
  %24 = load ptr, ptr %23, align 8
  %25 = load ptr, ptr %8, align 8
  %26 = getelementptr inbounds nuw %struct.Var, ptr %25, i32 0, i32 1
  %27 = load i32, ptr %26, align 4
  %28 = sub i32 %27, 1
  %29 = call ptr @list_nth(ptr noundef %24, i32 noundef %28)
  %30 = getelementptr inbounds nuw %struct.RangeTblEntry, ptr %29, i32 0, i32 4
  %31 = load i32, ptr %30, align 4
  store i32 %31, ptr %9, align 4
  %32 = load i32, ptr %9, align 4
  %33 = icmp ne i32 %32, 0
  br i1 %33, label %35, label %34

34:                                               ; preds = %20
  store i1 false, ptr %3, align 1
  store i32 1, ptr %7, align 4
  br label %92

35:                                               ; preds = %20
  %36 = load ptr, ptr %8, align 8
  %37 = getelementptr inbounds nuw %struct.Var, ptr %36, i32 0, i32 2
  %38 = load i16, ptr %37, align 8
  store i16 %38, ptr %10, align 2
  %39 = load i16, ptr %10, align 2
  %40 = sext i16 %39 to i32
  %41 = icmp sgt i32 %40, 0
  br i1 %41, label %42, label %69

42:                                               ; preds = %35
  %43 = load i32, ptr %9, align 4
  %44 = load i16, ptr %10, align 2
  %45 = call signext i8 @get_attgenerated(i32 noundef %43, i16 noundef signext %44)
  %46 = sext i8 %45 to i32
  %47 = icmp ne i32 %46, 0
  br i1 %47, label %48, label %69

48:                                               ; preds = %42
  br label %49

49:                                               ; preds = %48
  br i1 true, label %50, label %52

50:                                               ; preds = %49
  %51 = call zeroext i1 @errstart_cold(i32 noundef 21, ptr noundef null) #9
  br i1 %51, label %54, label %66

52:                                               ; preds = %49
  %53 = call zeroext i1 @errstart(i32 noundef 21, ptr noundef null)
  br i1 %53, label %54, label %66

54:                                               ; preds = %52, %50
  %55 = call i32 @errcode(i32 noundef 117833860)
  %56 = load i32, ptr %9, align 4
  %57 = load i16, ptr %10, align 2
  %58 = call ptr @get_attname(i32 noundef %56, i16 noundef signext %57, i1 noundef zeroext false)
  %59 = call i32 (ptr, ...) @errmsg(ptr noundef @.str.64, ptr noundef %58)
  %60 = call i32 (ptr, ...) @errdetail(ptr noundef @.str.65)
  %61 = load ptr, ptr %6, align 8
  %62 = load ptr, ptr %8, align 8
  %63 = getelementptr inbounds nuw %struct.Var, ptr %62, i32 0, i32 11
  %64 = load i32, ptr %63, align 8
  %65 = call i32 @parser_errposition(ptr noundef %61, i32 noundef %64)
  call void @errfinish(ptr noundef @.str.1, i32 noundef 3148, ptr noundef @__func__.check_nested_generated_walker)
  br label %66

66:                                               ; preds = %54, %52, %50
  unreachable

67:                                               ; No predecessors!
  br label %68

68:                                               ; preds = %67
  br label %69

69:                                               ; preds = %68, %42, %35
  %70 = load i16, ptr %10, align 2
  %71 = sext i16 %70 to i32
  %72 = icmp eq i32 %71, 0
  br i1 %72, label %73, label %91

73:                                               ; preds = %69
  br label %74

74:                                               ; preds = %73
  br i1 true, label %75, label %77

75:                                               ; preds = %74
  %76 = call zeroext i1 @errstart_cold(i32 noundef 21, ptr noundef null) #9
  br i1 %76, label %79, label %88

77:                                               ; preds = %74
  %78 = call zeroext i1 @errstart(i32 noundef 21, ptr noundef null)
  br i1 %78, label %79, label %88

79:                                               ; preds = %77, %75
  %80 = call i32 @errcode(i32 noundef 117833860)
  %81 = call i32 (ptr, ...) @errmsg(ptr noundef @.str.66)
  %82 = call i32 (ptr, ...) @errdetail(ptr noundef @.str.67)
  %83 = load ptr, ptr %6, align 8
  %84 = load ptr, ptr %8, align 8
  %85 = getelementptr inbounds nuw %struct.Var, ptr %84, i32 0, i32 11
  %86 = load i32, ptr %85, align 8
  %87 = call i32 @parser_errposition(ptr noundef %83, i32 noundef %86)
  call void @errfinish(ptr noundef @.str.1, i32 noundef 3155, ptr noundef @__func__.check_nested_generated_walker)
  br label %88

88:                                               ; preds = %79, %77, %75
  unreachable

89:                                               ; No predecessors!
  br label %90

90:                                               ; preds = %89
  br label %91

91:                                               ; preds = %90, %69
  store i1 false, ptr %3, align 1
  store i32 1, ptr %7, align 4
  br label %92

92:                                               ; preds = %91, %34
  call void @llvm.lifetime.end.p0(i64 2, ptr %10) #10
  call void @llvm.lifetime.end.p0(i64 4, ptr %9) #10
  call void @llvm.lifetime.end.p0(i64 8, ptr %8) #10
  br label %97

93:                                               ; preds = %15
  %94 = load ptr, ptr %4, align 8
  %95 = load ptr, ptr %5, align 8
  %96 = call zeroext i1 @expression_tree_walker_impl(ptr noundef %94, ptr noundef @check_nested_generated_walker, ptr noundef %95)
  store i1 %96, ptr %3, align 1
  store i32 1, ptr %7, align 4
  br label %97

97:                                               ; preds = %93, %92, %14
  call void @llvm.lifetime.end.p0(i64 8, ptr %6) #10
  %98 = load i1, ptr %3, align 1
  ret i1 %98
}