; Function Attrs: nounwind uwtable
define internal zeroext i1 @check_nested_generated_walker(ptr noundef %0, ptr noundef %1) #0 {
  %3 = icmp eq ptr %0, null
  br i1 %3, label %.thread, label %4

4:                                                ; preds = %2
  %5 = load i32, ptr %0, align 4
  %6 = icmp eq i32 %5, 6
  br i1 %6, label %7, label %44

7:                                                ; preds = %4
  %8 = getelementptr inbounds nuw i8, ptr %1, i64 24
  %9 = load ptr, ptr %8, align 8
  %10 = getelementptr inbounds nuw i8, ptr %0, i64 4
  %11 = load i32, ptr %10, align 4
  %12 = add i32 %11, -1
  %13 = getelementptr i8, ptr %9, i64 16
  %.val = load ptr, ptr %13, align 8
  %14 = sext i32 %12 to i64
  %15 = getelementptr inbounds %union.ListCell, ptr %.val, i64 %14
  %16 = load ptr, ptr %15, align 8
  %17 = getelementptr inbounds nuw i8, ptr %16, i64 28
  %18 = load i32, ptr %17, align 4
  %.not = icmp eq i32 %18, 0
  br i1 %.not, label %.thread, label %19

19:                                               ; preds = %7
  %20 = getelementptr inbounds nuw i8, ptr %0, i64 8
  %21 = load i16, ptr %20, align 8
  %22 = icmp sgt i16 %21, 0
  br i1 %22, label %23, label %34

23:                                               ; preds = %19
  %24 = tail call signext i8 @get_attgenerated(i32 noundef %18, i16 noundef signext %21) #11
  %.not22 = icmp eq i8 %24, 0
  br i1 %.not22, label %.thread, label %25

25:                                               ; preds = %23
  %26 = tail call zeroext i1 @errstart_cold(i32 noundef 21, ptr noundef null) #10
  tail call void @llvm.assume(i1 %26)
  %27 = tail call i32 @errcode(i32 noundef 117833860) #11
  %28 = tail call ptr @get_attname(i32 noundef %18, i16 noundef signext %21, i1 noundef zeroext false) #11
  %29 = tail call i32 (ptr, ...) @errmsg(ptr noundef nonnull @.str.64, ptr noundef %28) #11
  %30 = tail call i32 (ptr, ...) @errdetail(ptr noundef nonnull @.str.65) #11
  %31 = getelementptr inbounds nuw i8, ptr %0, i64 48
  %32 = load i32, ptr %31, align 8
  %33 = tail call i32 @parser_errposition(ptr noundef nonnull %1, i32 noundef %32) #11
  tail call void @errfinish(ptr noundef nonnull @.str.1, i32 noundef 3148, ptr noundef nonnull @__func__.check_nested_generated_walker) #11
  unreachable

34:                                               ; preds = %19
  %35 = icmp eq i16 %21, 0
  br i1 %35, label %36, label %.thread

36:                                               ; preds = %34
  %37 = tail call zeroext i1 @errstart_cold(i32 noundef 21, ptr noundef null) #10
  tail call void @llvm.assume(i1 %37)
  %38 = tail call i32 @errcode(i32 noundef 117833860) #11
  %39 = tail call i32 (ptr, ...) @errmsg(ptr noundef nonnull @.str.66) #11
  %40 = tail call i32 (ptr, ...) @errdetail(ptr noundef nonnull @.str.67) #11
  %41 = getelementptr inbounds nuw i8, ptr %0, i64 48
  %42 = load i32, ptr %41, align 8
  %43 = tail call i32 @parser_errposition(ptr noundef nonnull %1, i32 noundef %42) #11
  tail call void @errfinish(ptr noundef nonnull @.str.1, i32 noundef 3155, ptr noundef nonnull @__func__.check_nested_generated_walker) #11
  unreachable

44:                                               ; preds = %4
  %45 = tail call zeroext i1 @expression_tree_walker_impl(ptr noundef nonnull %0, ptr noundef nonnull @check_nested_generated_walker, ptr noundef %1) #11
  br label %.thread

.thread:                                          ; preds = %23, %7, %34, %2, %44
  %.0 = phi i1 [ %45, %44 ], [ false, %2 ], [ false, %34 ], [ false, %7 ], [ false, %23 ]
  ret i1 %.0
}